/*
 * Intel ACPI Component Architecture
 * AML/ASL+ Disassembler version 20190509 (64-bit version)
 * Copyright (c) 2000 - 2019 Intel Corporation
 * 
 * Disassembly of /Users/mykolagrymalyuk/Documents/GitHub/HP-Elite-X2-G1-Hackintosh/ACPI Dumps/Compiled/hpet.aml, Thu May 21 19:13:59 2020
 *
 * ACPI Data Table [HPET]
 *
 * Format: [HexOffset DecimalOffset ByteLength]  FieldName : FieldValue
 */

[000h 0000   4]                    Signature : "HPET"    [High Precision Event Timer table]
[004h 0004   4]                 Table Length : 00000038
[008h 0008   1]                     Revision : 01
[009h 0009   1]                     Checksum : 4A
[00Ah 0010   6]                       Oem ID : "HPQOEM"
[010h 0016   8]                 Oem Table ID : "80FC    "
[018h 0024   4]                 Oem Revision : 00000001
[01Ch 0028   4]              Asl Compiler ID : "HP  "
[020h 0032   4]        Asl Compiler Revision : 00000001

[024h 0036   4]            Hardware Block ID : 8086A201

[028h 0040  12]         Timer Block Register : [Generic Address Structure]
[028h 0040   1]                     Space ID : 00 [SystemMemory]
[029h 0041   1]                    Bit Width : 40
[02Ah 0042   1]                   Bit Offset : 00
[02Bh 0043   1]         Encoded Access Width : 00 [Undefined/Legacy]
[02Ch 0044   8]                      Address : 00000000FED00000

[034h 0052   1]              Sequence Number : 00
[035h 0053   2]          Minimum Clock Ticks : 0080
[037h 0055   1]        Flags (decoded below) : 00
                             4K Page Protect : 0
                            64K Page Protect : 0

Raw Table Data: Length 56 (0x38)

    0000: 48 50 45 54 38 00 00 00 01 4A 48 50 51 4F 45 4D  // HPET8....JHPQOEM
    0010: 38 30 46 43 20 20 20 20 01 00 00 00 48 50 20 20  // 80FC    ....HP  
    0020: 01 00 00 00 01 A2 86 80 00 40 00 00 00 00 D0 FE  // .........@......
    0030: 00 00 00 00 00 80 00 00                          // ........
